target datalayout = "e-m:e-p270:32:32-p271:32:32-p272:64:64-i64:64-i128:128-f80:128-n8:16:32:64-S128"
target triple = "x86_64-pc-linux-gnu"

%struct._zend_stack = type { i32, i32, i32, ptr }
%struct._zend_php_scanner_globals = type { ptr, ptr, i32, ptr, ptr, ptr, ptr, ptr, i32, %struct._zend_stack, %struct._zend_ptr_stack, %struct._zend_stack, i8, i32, i8, ptr, i64, ptr, i64, ptr, ptr, ptr, i32, ptr, ptr }
%struct._zend_ptr_stack = type { i32, i32, ptr, ptr, i8 }

@language_scanner_globals = global %struct._zend_php_scanner_globals zeroinitializer, align 8

; Function Attrs: nounwind uwtable
define i64 @zend_get_scanned_file_offset() #0 {
  %1 = alloca i64, align 8
  %2 = alloca i64, align 8
  %3 = alloca i64, align 8
  %4 = alloca i64, align 8
  %5 = alloca ptr, align 8
  %6 = load ptr, ptr getelementptr inbounds (%struct._zend_php_scanner_globals, ptr @language_scanner_globals, i32 0, i32 5), align 8
  %7 = load ptr, ptr getelementptr inbounds (%struct._zend_php_scanner_globals, ptr @language_scanner_globals, i32 0, i32 3), align 8
  %8 = ptrtoint ptr %6 to i64
  %9 = ptrtoint ptr %7 to i64
  %10 = sub i64 %8, %9
  store i64 %10, ptr %2, align 8
  %11 = load ptr, ptr getelementptr inbounds (%struct._zend_php_scanner_globals, ptr @language_scanner_globals, i32 0, i32 19), align 8
  %12 = icmp ne ptr %11, null
  br i1 %12, label %13, label %44

13:                                               ; preds = %0
  %14 = load i64, ptr %2, align 8
  store i64 %14, ptr %3, align 8
  store i64 0, ptr %4, align 8
  br label %15

15:                                               ; preds = %39, %13
  store ptr null, ptr %5, align 8
  %16 = load ptr, ptr getelementptr inbounds (%struct._zend_php_scanner_globals, ptr @language_scanner_globals, i32 0, i32 19), align 8
  %17 = load ptr, ptr getelementptr inbounds (%struct._zend_php_scanner_globals, ptr @language_scanner_globals, i32 0, i32 15), align 8
  %18 = load i64, ptr %2, align 8
  %19 = call i64 %16(ptr noundef %5, ptr noundef %4, ptr noundef %17, i64 noundef %18)
  %20 = icmp eq i64 -1, %19
  br i1 %20, label %21, label %22

21:                                               ; preds = %15
  store i64 -1, ptr %1, align 8
  br label %46

22:                                               ; preds = %15
  %23 = load ptr, ptr %5, align 8
  call void @_efree(ptr noundef %23)
  %24 = load i64, ptr %4, align 8
  %25 = load i64, ptr %3, align 8
  %26 = icmp ugt i64 %24, %25
  br i1 %26, label %27, label %30

27:                                               ; preds = %22
  %28 = load i64, ptr %2, align 8
  %29 = add i64 %28, -1
  store i64 %29, ptr %2, align 8
  br label %38

30:                                               ; preds = %22
  %31 = load i64, ptr %4, align 8
  %32 = load i64, ptr %3, align 8
  %33 = icmp ult i64 %31, %32
  br i1 %33, label %34, label %37

34:                                               ; preds = %30
  %35 = load i64, ptr %2, align 8
  %36 = add i64 %35, 1
  store i64 %36, ptr %2, align 8
  br label %37

37:                                               ; preds = %34, %30
  br label %38

38:                                               ; preds = %37, %27
  br label %39

39:                                               ; preds = %38
  %40 = load i64, ptr %3, align 8
  %41 = load i64, ptr %4, align 8
  %42 = icmp ne i64 %40, %41
  br i1 %42, label %15, label %43

43:                                               ; preds = %39
  br label %44

44:                                               ; preds = %43, %0
  %45 = load i64, ptr %2, align 8
  store i64 %45, ptr %1, align 8
  br label %46

46:                                               ; preds = %44, %21
  %47 = load i64, ptr %1, align 8
  ret i64 %47
}