; Function Attrs: nounwind uwtable
define i64 @zend_get_scanned_file_offset() local_unnamed_addr #0 {
  %1 = alloca i64, align 8
  %2 = alloca ptr, align 8
  %3 = load ptr, ptr getelementptr inbounds (%struct._zend_php_scanner_globals, ptr @language_scanner_globals, i64 0, i32 5), align 8
  %4 = load ptr, ptr getelementptr inbounds (%struct._zend_php_scanner_globals, ptr @language_scanner_globals, i64 0, i32 3), align 8
  %5 = ptrtoint ptr %3 to i64
  %6 = ptrtoint ptr %4 to i64
  %7 = sub i64 %5, %6
  %8 = load ptr, ptr getelementptr inbounds (%struct._zend_php_scanner_globals, ptr @language_scanner_globals, i64 0, i32 19), align 8
  %.not = icmp eq ptr %8, null
  br i1 %.not, label %.loopexit, label %9

9:                                                ; preds = %0
  store i64 0, ptr %1, align 8
  br label %10

10:                                               ; preds = %15, %9
  %.09 = phi i64 [ %7, %9 ], [ %.1, %15 ]
  store ptr null, ptr %2, align 8
  %11 = load ptr, ptr getelementptr inbounds (%struct._zend_php_scanner_globals, ptr @language_scanner_globals, i64 0, i32 19), align 8
  %12 = load ptr, ptr getelementptr inbounds (%struct._zend_php_scanner_globals, ptr @language_scanner_globals, i64 0, i32 15), align 8
  %13 = call i64 %11(ptr noundef nonnull %2, ptr noundef nonnull %1, ptr noundef %12, i64 noundef %.09) #16
  %14 = icmp eq i64 %13, -1
  br i1 %14, label %.loopexit, label %15

15:                                               ; preds = %10
  %16 = load ptr, ptr %2, align 8
  call void @_efree(ptr noundef %16) #16
  %17 = load i64, ptr %1, align 8
  %18 = icmp ugt i64 %17, %7
  %19 = icmp ult i64 %17, %7
  %20 = zext i1 %19 to i64
  %.1.v = select i1 %18, i64 -1, i64 %20
  %.1 = add i64 %.1.v, %.09
  %.not12 = icmp eq i64 %7, %17
  br i1 %.not12, label %.loopexit, label %10

.loopexit:                                        ; preds = %15, %10, %0
  %.0 = phi i64 [ %7, %0 ], [ %.1, %15 ], [ -1, %10 ]
  ret i64 %.0
}